; Function Attrs: mustprogress nofree nounwind memory(write, argmem: readwrite) uwtable
define noundef float @_Z6rmsdeviPfPA3_fS1_(i32 noundef %0, ptr nocapture noundef readonly %1, ptr nocapture noundef readonly %2, ptr nocapture noundef readonly %3) local_unnamed_addr #0 {
  %5 = icmp sgt i32 %0, 0
  br i1 %5, label %.lr.ph.i, label %_Z16calc_similar_indbiPKiPKfPA3_fS4_.exit

.lr.ph.i:                                         ; preds = %4
  %wide.trip.count114.i = zext nneg i32 %0 to i64
  br label %.split.us.i

.split.us.i:                                      ; preds = %.split49.us.i, %.lr.ph.i
  %indvars.iv93.i = phi i64 [ %indvars.iv.next94.i, %.split49.us.i ], [ 0, %.lr.ph.i ]
  %.054.us60.i = phi float [ %16, %.split49.us.i ], [ 0.000000e+00, %.lr.ph.i ]
  %.04152.us61.i = phi float [ %8, %.split49.us.i ], [ 0.000000e+00, %.lr.ph.i ]
  %6 = getelementptr inbounds float, ptr %1, i64 %indvars.iv93.i
  %7 = load float, ptr %6, align 4
  br label %9

.split49.us.i:                                    ; preds = %9
  %8 = fadd float %.04152.us61.i, %7
  %indvars.iv.next94.i = add nuw nsw i64 %indvars.iv93.i, 1
  %exitcond97.not.i = icmp eq i64 %indvars.iv.next94.i, %wide.trip.count114.i
  br i1 %exitcond97.not.i, label %_Z16calc_similar_indbiPKiPKfPA3_fS4_.exit.loopexit, label %.split.us.i, !llvm.loop !7

9:                                                ; preds = %9, %.split.us.i
  %indvars.iv89.i = phi i64 [ %indvars.iv.next90.i, %9 ], [ 0, %.split.us.i ]
  %.147.us.i = phi float [ %16, %9 ], [ %.054.us60.i, %.split.us.i ]
  %10 = getelementptr inbounds [3 x float], ptr %2, i64 %indvars.iv93.i, i64 %indvars.iv89.i
  %11 = load float, ptr %10, align 4
  %12 = getelementptr inbounds [3 x float], ptr %3, i64 %indvars.iv93.i, i64 %indvars.iv89.i
  %13 = load float, ptr %12, align 4
  %14 = fsub float %11, %13
  %15 = fmul float %14, %14
  %16 = tail call float @llvm.fmuladd.f32(float %7, float %15, float %.147.us.i)
  %indvars.iv.next90.i = add nuw nsw i64 %indvars.iv89.i, 1
  %exitcond92.not.i = icmp eq i64 %indvars.iv.next90.i, 3
  br i1 %exitcond92.not.i, label %.split49.us.i, label %9, !llvm.loop !5

_Z16calc_similar_indbiPKiPKfPA3_fS4_.exit.loopexit: ; preds = %.split49.us.i
  %17 = fdiv float %16, %8
  br label %_Z16calc_similar_indbiPKiPKfPA3_fS4_.exit

_Z16calc_similar_indbiPKiPKfPA3_fS4_.exit:        ; preds = %_Z16calc_similar_indbiPKiPKfPA3_fS4_.exit.loopexit, %4
  %18 = phi float [ 0x7FF8000000000000, %4 ], [ %17, %_Z16calc_similar_indbiPKiPKfPA3_fS4_.exit.loopexit ]
  %19 = tail call noundef float @sqrtf(float noundef %18) #15
  ret float %19
}